target datalayout = "e-m:e-p270:32:32-p271:32:32-p272:64:64-i64:64-i128:128-f80:128-n8:16:32:64-S128"
target triple = "x86_64-pc-linux-gnu"

%struct.mi_heap_s = type { ptr, %"struct.std::atomic.4", i64, i32, i64, [2 x i64], %struct.mi_random_cxt_s, i64, i64, i64, i64, i64, ptr, i8, i8, [129 x ptr], [75 x %struct.mi_page_queue_s] }
%"struct.std::atomic.4" = type { %"struct.std::__atomic_base.5" }
%"struct.std::__atomic_base.5" = type { ptr }
%struct.mi_random_cxt_s = type { [16 x i32], [16 x i32], i32, i8 }
%struct.mi_page_queue_s = type { ptr, ptr, i64 }
%struct.mi_memid_s = type { %union.anon, i8, i8, i8, i32 }
%union.anon = type { %struct.mi_memid_os_info }
%struct.mi_memid_os_info = type { ptr, i64 }
%struct.mi_memid_arena_info = type { i64, i32, i8 }

; Function Attrs: mustprogress nounwind uwtable
define hidden noundef i32 @_Z17_mi_arena_id_nonev() #5 {
  ret i32 0
}

; Function Attrs: mustprogress nounwind uwtable
define internal noundef zeroext i1 @_ZL23mi_arena_id_is_suitableibi(i32 noundef %0, i1 noundef zeroext %1, i32 noundef %2) #5 {
  %4 = alloca i32, align 4
  %5 = alloca i8, align 1
  %6 = alloca i32, align 4
  store i32 %0, ptr %4, align 4, !tbaa !58
  %7 = zext i1 %1 to i8
  store i8 %7, ptr %5, align 1, !tbaa !23
  store i32 %2, ptr %6, align 4, !tbaa !58
  %8 = load i8, ptr %5, align 1, !tbaa !23, !range !25, !noundef !26
  %9 = trunc i8 %8 to i1
  br i1 %9, label %14, label %10

10:                                               ; preds = %3
  %11 = load i32, ptr %6, align 4, !tbaa !58
  %12 = call noundef i32 @_Z17_mi_arena_id_nonev()
  %13 = icmp eq i32 %11, %12
  br i1 %13, label %18, label %14

14:                                               ; preds = %10, %3
  %15 = load i32, ptr %4, align 4, !tbaa !58
  %16 = load i32, ptr %6, align 4, !tbaa !58
  %17 = icmp eq i32 %15, %16
  br label %18

18:                                               ; preds = %14, %10
  %19 = phi i1 [ true, %10 ], [ %17, %14 ]
  ret i1 %19
}

; Function Attrs: mustprogress uwtable
define hidden noundef zeroext i1 @_Z27_mi_arena_memid_is_suitable10mi_memid_si(ptr noundef byval(%struct.mi_memid_s) align 8 %0, i32 noundef %1) #0 {
  %3 = alloca i1, align 1
  %4 = alloca i32, align 4
  store i32 %1, ptr %4, align 4, !tbaa !58
  %5 = getelementptr inbounds nuw %struct.mi_memid_s, ptr %0, i32 0, i32 4
  %6 = load i32, ptr %5, align 4, !tbaa !121
  %7 = icmp eq i32 %6, 6
  br i1 %7, label %8, label %18

8:                                                ; preds = %2
  %9 = getelementptr inbounds nuw %struct.mi_memid_s, ptr %0, i32 0, i32 0
  %10 = getelementptr inbounds nuw %struct.mi_memid_arena_info, ptr %9, i32 0, i32 1
  %11 = load i32, ptr %10, align 8, !tbaa !28
  %12 = getelementptr inbounds nuw %struct.mi_memid_s, ptr %0, i32 0, i32 0
  %13 = getelementptr inbounds nuw %struct.mi_memid_arena_info, ptr %12, i32 0, i32 2
  %14 = load i8, ptr %13, align 4, !tbaa !28, !range !25, !noundef !26
  %15 = trunc i8 %14 to i1
  %16 = load i32, ptr %4, align 4, !tbaa !58
  %17 = call noundef zeroext i1 @_ZL23mi_arena_id_is_suitableibi(i32 noundef %11, i1 noundef zeroext %15, i32 noundef %16)
  store i1 %17, ptr %3, align 1
  br label %22

18:                                               ; preds = %2
  %19 = call noundef i32 @_Z17_mi_arena_id_nonev()
  %20 = load i32, ptr %4, align 4, !tbaa !58
  %21 = call noundef zeroext i1 @_ZL23mi_arena_id_is_suitableibi(i32 noundef %19, i1 noundef zeroext false, i32 noundef %20)
  store i1 %21, ptr %3, align 1
  br label %22

22:                                               ; preds = %18, %8
  %23 = load i1, ptr %3, align 1
  ret i1 %23
}

; Function Attrs: mustprogress uwtable
define hidden noundef zeroext i1 @_Z26_mi_heap_memid_is_suitableP9mi_heap_s10mi_memid_s(ptr noundef %0, ptr noundef byval(%struct.mi_memid_s) align 8 %1) #0 {
  %3 = alloca ptr, align 8
  %4 = alloca %struct.mi_memid_s, align 8
  store ptr %0, ptr %3, align 8, !tbaa !42
  call void @llvm.memcpy.p0.p0.i64(ptr align 8 %4, ptr align 8 %1, i64 24, i1 false), !tbaa.struct !74
  %5 = load ptr, ptr %3, align 8, !tbaa !42
  %6 = getelementptr inbounds nuw %struct.mi_heap_s, ptr %5, i32 0, i32 3
  %7 = load i32, ptr %6, align 8, !tbaa !102
  %8 = call noundef zeroext i1 @_Z27_mi_arena_memid_is_suitable10mi_memid_si(ptr noundef byval(%struct.mi_memid_s) align 8 %4, i32 noundef %7)
  ret i1 %8
}