; Function Attrs: mustprogress nofree norecurse nosync nounwind willreturn memory(argmem: read) uwtable
define hidden noundef zeroext i1 @_Z26_mi_heap_memid_is_suitableP9mi_heap_s10mi_memid_s(ptr noundef readonly captures(none) %0, ptr noundef readonly byval(%struct.mi_memid_s) align 8 captures(none) %1) local_unnamed_addr #0 {
  %.sroa.31.0..sroa_idx = getelementptr inbounds nuw i8, ptr %1, i64 20
  %.sroa.31.0.copyload = load i32, ptr %.sroa.31.0..sroa_idx, align 4, !tbaa !129
  %3 = getelementptr inbounds nuw i8, ptr %0, i64 24
  %4 = load i32, ptr %3, align 8, !tbaa !94
  %5 = icmp eq i32 %.sroa.31.0.copyload, 6
  br i1 %5, label %6, label %10

6:                                                ; preds = %2
  %.sroa.2.0..sroa_idx = getelementptr inbounds nuw i8, ptr %1, i64 12
  %.sroa.2.0.copyload = load i8, ptr %.sroa.2.0..sroa_idx, align 4
  %.sroa.1.0..sroa_idx = getelementptr inbounds nuw i8, ptr %1, i64 8
  %.sroa.1.0.copyload = load i32, ptr %.sroa.1.0..sroa_idx, align 8
  %7 = trunc nuw i8 %.sroa.2.0.copyload to i1
  %.not.i.i = xor i1 %7, true
  %8 = icmp eq i32 %4, 0
  %or.cond.i.i = and i1 %8, %.not.i.i
  %9 = icmp eq i32 %.sroa.1.0.copyload, %4
  %spec.select.i.i = or i1 %9, %or.cond.i.i
  br label %_Z27_mi_arena_memid_is_suitable10mi_memid_si.exit

10:                                               ; preds = %2
  %11 = icmp eq i32 %4, 0
  br label %_Z27_mi_arena_memid_is_suitable10mi_memid_si.exit

_Z27_mi_arena_memid_is_suitable10mi_memid_si.exit: ; preds = %6, %10
  %.0.i = phi i1 [ %spec.select.i.i, %6 ], [ %11, %10 ]
  ret i1 %.0.i
}